; Function Attrs: mustprogress uwtable
define hidden void @_ZN3sat14cut_simplifier11validate_eqENS_7literalES1_(ptr nocapture noundef nonnull align 8 dereferenceable(600) %this, i32 %a.coerce, i32 %b.coerce) local_unnamed_addr #3 align 2 {
entry:
  %lits1 = alloca [2 x %"class.sat::literal"], align 4
  %lits2 = alloca [2 x %"class.sat::literal"], align 4
  %m_validate_lemmas = getelementptr inbounds i8, ptr %this, i64 65
  %0 = load i8, ptr %m_validate_lemmas, align 1
  %1 = and i8 %0, 1
  %tobool.not = icmp eq i8 %1, 0
  br i1 %tobool.not, label %return, label %if.end

if.end:                                           ; preds = %entry
  tail call void @_ZN3sat14cut_simplifier16ensure_validatorEv(ptr noundef nonnull align 8 dereferenceable(600) %this)
  store i32 %a.coerce, ptr %lits1, align 4
  %arrayinit.element = getelementptr inbounds i8, ptr %lits1, i64 4
  %xor.i = xor i32 %b.coerce, 1
  store i32 %xor.i, ptr %arrayinit.element, align 4
  %xor.i1 = xor i32 %a.coerce, 1
  store i32 %xor.i1, ptr %lits2, align 4
  %arrayinit.element10 = getelementptr inbounds i8, ptr %lits2, i64 4
  store i32 %b.coerce, ptr %arrayinit.element10, align 4
  %m_validator = getelementptr inbounds i8, ptr %this, i64 568
  %2 = load ptr, ptr %m_validator, align 8
  call void @_ZN3sat14cut_simplifier9validator8validateEjPKNS_7literalE(ptr noundef nonnull align 8 dereferenceable(24) %2, i32 noundef 2, ptr noundef nonnull %lits1)
  %3 = load ptr, ptr %m_validator, align 8
  call void @_ZN3sat14cut_simplifier9validator8validateEjPKNS_7literalE(ptr noundef nonnull align 8 dereferenceable(24) %3, i32 noundef 2, ptr noundef nonnull %lits2)
  br label %return

return:                                           ; preds = %entry, %if.end
  ret void
}